; Function Attrs: nofree norecurse nosync nounwind memory(read, argmem: readwrite, inaccessiblemem: none) uwtable
define internal fastcc void @advance_last_with_data(ptr noundef captures(none) %0) unnamed_addr #5 {
  %2 = getelementptr inbounds nuw i8, ptr %0, i64 16
  %3 = load ptr, ptr %2, align 8
  %4 = load ptr, ptr %3, align 8
  %.not = icmp eq ptr %4, null
  br i1 %.not, label %.loopexit, label %.preheader

.preheader:                                       ; preds = %1
  %5 = load ptr, ptr %4, align 8
  %.not1416 = icmp eq ptr %5, null
  br i1 %.not1416, label %.loopexit, label %.lr.ph

.lr.ph:                                           ; preds = %.preheader, %11
  %6 = phi ptr [ %13, %11 ], [ %5, %.preheader ]
  %7 = phi ptr [ %12, %11 ], [ %4, %.preheader ]
  %8 = getelementptr inbounds nuw i8, ptr %6, i64 24
  %9 = load i64, ptr %8, align 8
  %.not15 = icmp eq i64 %9, 0
  br i1 %.not15, label %11, label %10

10:                                               ; preds = %.lr.ph
  store ptr %7, ptr %2, align 8
  %.pre = load ptr, ptr %7, align 8
  br label %11

11:                                               ; preds = %10, %.lr.ph
  %12 = phi ptr [ %.pre, %10 ], [ %6, %.lr.ph ]
  %13 = load ptr, ptr %12, align 8
  %.not14 = icmp eq ptr %13, null
  br i1 %.not14, label %.loopexit, label %.lr.ph, !llvm.loop !17

.loopexit:                                        ; preds = %11, %.preheader, %1
  ret void
}